target datalayout = "e-m:e-p270:32:32-p271:32:32-p272:64:64-i64:64-i128:128-f80:128-n8:16:32:64-S128"
target triple = "x86_64-pc-linux-gnu"

%struct.ISSUING_DIST_POINT_st = type { ptr, i32, i32, ptr, i32, i32 }
%struct.BIT_STRING_BITNAME_st = type { i32, ptr, ptr }

@.str.42 = private unnamed_addr constant [27 x i8] c"%*sOnly User Certificates\0A\00", align 1
@.str.43 = private unnamed_addr constant [1 x i8] zeroinitializer, align 1
@.str.44 = private unnamed_addr constant [25 x i8] c"%*sOnly CA Certificates\0A\00", align 1
@.str.45 = private unnamed_addr constant [17 x i8] c"%*sIndirect CRL\0A\00", align 1
@.str.46 = private unnamed_addr constant [18 x i8] c"Only Some Reasons\00", align 1
@.str.47 = private unnamed_addr constant [32 x i8] c"%*sOnly Attribute Certificates\0A\00", align 1
@.str.48 = private unnamed_addr constant [12 x i8] c"%*s<EMPTY>\0A\00", align 1
@.str.50 = private unnamed_addr constant [2 x i8] c"\0A\00", align 1
@.str.52 = private unnamed_addr constant [11 x i8] c"%*s%s:\0A%*s\00", align 1
@.str.53 = private unnamed_addr constant [3 x i8] c", \00", align 1
@.str.54 = private unnamed_addr constant [9 x i8] c"<EMPTY>\0A\00", align 1

; Function Attrs: nounwind uwtable
define internal i32 @print_reasons(ptr noundef %0, ptr noundef %1, ptr noundef %2, i32 noundef %3) #0 {
  %5 = alloca ptr, align 8
  %6 = alloca ptr, align 8
  %7 = alloca ptr, align 8
  %8 = alloca i32, align 4
  %9 = alloca i32, align 4
  %10 = alloca ptr, align 8
  store ptr %0, ptr %5, align 8, !tbaa !37
  store ptr %1, ptr %6, align 8, !tbaa !57
  store ptr %2, ptr %7, align 8, !tbaa !93
  store i32 %3, ptr %8, align 4, !tbaa !16
  call void @llvm.lifetime.start.p0(i64 4, ptr %9) #5
  store i32 1, ptr %9, align 4, !tbaa !16
  call void @llvm.lifetime.start.p0(i64 8, ptr %10) #5
  %11 = load ptr, ptr %5, align 8, !tbaa !37
  %12 = load i32, ptr %8, align 4, !tbaa !16
  %13 = load ptr, ptr %6, align 8, !tbaa !57
  %14 = load i32, ptr %8, align 4, !tbaa !16
  %15 = add nsw i32 %14, 2
  %16 = call i32 (ptr, ptr, ...) @BIO_printf(ptr noundef %11, ptr noundef @.str.52, i32 noundef %12, ptr noundef @.str.43, ptr noundef %13, i32 noundef %15, ptr noundef @.str.43)
  store ptr @reason_flags, ptr %10, align 8, !tbaa !94
  br label %17

17:                                               ; preds = %43, %4
  %18 = load ptr, ptr %10, align 8, !tbaa !94
  %19 = getelementptr inbounds nuw %struct.BIT_STRING_BITNAME_st, ptr %18, i32 0, i32 1
  %20 = load ptr, ptr %19, align 8, !tbaa !96
  %21 = icmp ne ptr %20, null
  br i1 %21, label %22, label %46

22:                                               ; preds = %17
  %23 = load ptr, ptr %7, align 8, !tbaa !93
  %24 = load ptr, ptr %10, align 8, !tbaa !94
  %25 = getelementptr inbounds nuw %struct.BIT_STRING_BITNAME_st, ptr %24, i32 0, i32 0
  %26 = load i32, ptr %25, align 8, !tbaa !99
  %27 = call i32 @ASN1_BIT_STRING_get_bit(ptr noundef %23, i32 noundef %26)
  %28 = icmp ne i32 %27, 0
  br i1 %28, label %29, label %42

29:                                               ; preds = %22
  %30 = load i32, ptr %9, align 4, !tbaa !16
  %31 = icmp ne i32 %30, 0
  br i1 %31, label %32, label %33

32:                                               ; preds = %29
  store i32 0, ptr %9, align 4, !tbaa !16
  br label %36

33:                                               ; preds = %29
  %34 = load ptr, ptr %5, align 8, !tbaa !37
  %35 = call i32 @BIO_puts(ptr noundef %34, ptr noundef @.str.53)
  br label %36

36:                                               ; preds = %33, %32
  %37 = load ptr, ptr %5, align 8, !tbaa !37
  %38 = load ptr, ptr %10, align 8, !tbaa !94
  %39 = getelementptr inbounds nuw %struct.BIT_STRING_BITNAME_st, ptr %38, i32 0, i32 1
  %40 = load ptr, ptr %39, align 8, !tbaa !96
  %41 = call i32 @BIO_puts(ptr noundef %37, ptr noundef %40)
  br label %42

42:                                               ; preds = %36, %22
  br label %43

43:                                               ; preds = %42
  %44 = load ptr, ptr %10, align 8, !tbaa !94
  %45 = getelementptr inbounds nuw %struct.BIT_STRING_BITNAME_st, ptr %44, i32 1
  store ptr %45, ptr %10, align 8, !tbaa !94
  br label %17, !llvm.loop !108

46:                                               ; preds = %17
  %47 = load i32, ptr %9, align 4, !tbaa !16
  %48 = icmp ne i32 %47, 0
  br i1 %48, label %49, label %52

49:                                               ; preds = %46
  %50 = load ptr, ptr %5, align 8, !tbaa !37
  %51 = call i32 @BIO_puts(ptr noundef %50, ptr noundef @.str.54)
  br label %55

52:                                               ; preds = %46
  %53 = load ptr, ptr %5, align 8, !tbaa !37
  %54 = call i32 @BIO_puts(ptr noundef %53, ptr noundef @.str.50)
  br label %55

55:                                               ; preds = %52, %49
  call void @llvm.lifetime.end.p0(i64 8, ptr %10) #5
  call void @llvm.lifetime.end.p0(i64 4, ptr %9) #5
  ret i32 1
}

; Function Attrs: nounwind uwtable
define internal i32 @i2r_idp(ptr noundef %0, ptr noundef %1, ptr noundef %2, i32 noundef %3) #0 {
  %5 = alloca ptr, align 8
  %6 = alloca ptr, align 8
  %7 = alloca ptr, align 8
  %8 = alloca i32, align 4
  %9 = alloca ptr, align 8
  store ptr %0, ptr %5, align 8, !tbaa !3
  store ptr %1, ptr %6, align 8, !tbaa !20
  store ptr %2, ptr %7, align 8, !tbaa !37
  store i32 %3, ptr %8, align 4, !tbaa !16
  call void @llvm.lifetime.start.p0(i64 8, ptr %9) #5
  %10 = load ptr, ptr %6, align 8, !tbaa !20
  store ptr %10, ptr %9, align 8, !tbaa !55
  %11 = load ptr, ptr %9, align 8, !tbaa !55
  %12 = getelementptr inbounds nuw %struct.ISSUING_DIST_POINT_st, ptr %11, i32 0, i32 0
  %13 = load ptr, ptr %12, align 8, !tbaa !59
  %14 = icmp ne ptr %13, null
  br i1 %14, label %15, label %22

15:                                               ; preds = %4
  %16 = load ptr, ptr %7, align 8, !tbaa !37
  %17 = load ptr, ptr %9, align 8, !tbaa !55
  %18 = getelementptr inbounds nuw %struct.ISSUING_DIST_POINT_st, ptr %17, i32 0, i32 0
  %19 = load ptr, ptr %18, align 8, !tbaa !59
  %20 = load i32, ptr %8, align 4, !tbaa !16
  %21 = call i32 @print_distpoint(ptr noundef %16, ptr noundef %19, i32 noundef %20)
  br label %22

22:                                               ; preds = %15, %4
  %23 = load ptr, ptr %9, align 8, !tbaa !55
  %24 = getelementptr inbounds nuw %struct.ISSUING_DIST_POINT_st, ptr %23, i32 0, i32 1
  %25 = load i32, ptr %24, align 8, !tbaa !61
  %26 = icmp sgt i32 %25, 0
  br i1 %26, label %27, label %31

27:                                               ; preds = %22
  %28 = load ptr, ptr %7, align 8, !tbaa !37
  %29 = load i32, ptr %8, align 4, !tbaa !16
  %30 = call i32 (ptr, ptr, ...) @BIO_printf(ptr noundef %28, ptr noundef @.str.42, i32 noundef %29, ptr noundef @.str.43)
  br label %31

31:                                               ; preds = %27, %22
  %32 = load ptr, ptr %9, align 8, !tbaa !55
  %33 = getelementptr inbounds nuw %struct.ISSUING_DIST_POINT_st, ptr %32, i32 0, i32 2
  %34 = load i32, ptr %33, align 4, !tbaa !62
  %35 = icmp sgt i32 %34, 0
  br i1 %35, label %36, label %40

36:                                               ; preds = %31
  %37 = load ptr, ptr %7, align 8, !tbaa !37
  %38 = load i32, ptr %8, align 4, !tbaa !16
  %39 = call i32 (ptr, ptr, ...) @BIO_printf(ptr noundef %37, ptr noundef @.str.44, i32 noundef %38, ptr noundef @.str.43)
  br label %40

40:                                               ; preds = %36, %31
  %41 = load ptr, ptr %9, align 8, !tbaa !55
  %42 = getelementptr inbounds nuw %struct.ISSUING_DIST_POINT_st, ptr %41, i32 0, i32 4
  %43 = load i32, ptr %42, align 8, !tbaa !63
  %44 = icmp sgt i32 %43, 0
  br i1 %44, label %45, label %49

45:                                               ; preds = %40
  %46 = load ptr, ptr %7, align 8, !tbaa !37
  %47 = load i32, ptr %8, align 4, !tbaa !16
  %48 = call i32 (ptr, ptr, ...) @BIO_printf(ptr noundef %46, ptr noundef @.str.45, i32 noundef %47, ptr noundef @.str.43)
  br label %49

49:                                               ; preds = %45, %40
  %50 = load ptr, ptr %9, align 8, !tbaa !55
  %51 = getelementptr inbounds nuw %struct.ISSUING_DIST_POINT_st, ptr %50, i32 0, i32 3
  %52 = load ptr, ptr %51, align 8, !tbaa !64
  %53 = icmp ne ptr %52, null
  br i1 %53, label %54, label %61

54:                                               ; preds = %49
  %55 = load ptr, ptr %7, align 8, !tbaa !37
  %56 = load ptr, ptr %9, align 8, !tbaa !55
  %57 = getelementptr inbounds nuw %struct.ISSUING_DIST_POINT_st, ptr %56, i32 0, i32 3
  %58 = load ptr, ptr %57, align 8, !tbaa !64
  %59 = load i32, ptr %8, align 4, !tbaa !16
  %60 = call i32 @print_reasons(ptr noundef %55, ptr noundef @.str.46, ptr noundef %58, i32 noundef %59)
  br label %61

61:                                               ; preds = %54, %49
  %62 = load ptr, ptr %9, align 8, !tbaa !55
  %63 = getelementptr inbounds nuw %struct.ISSUING_DIST_POINT_st, ptr %62, i32 0, i32 5
  %64 = load i32, ptr %63, align 4, !tbaa !65
  %65 = icmp sgt i32 %64, 0
  br i1 %65, label %66, label %70

66:                                               ; preds = %61
  %67 = load ptr, ptr %7, align 8, !tbaa !37
  %68 = load i32, ptr %8, align 4, !tbaa !16
  %69 = call i32 (ptr, ptr, ...) @BIO_printf(ptr noundef %67, ptr noundef @.str.47, i32 noundef %68, ptr noundef @.str.43)
  br label %70

70:                                               ; preds = %66, %61
  %71 = load ptr, ptr %9, align 8, !tbaa !55
  %72 = getelementptr inbounds nuw %struct.ISSUING_DIST_POINT_st, ptr %71, i32 0, i32 0
  %73 = load ptr, ptr %72, align 8, !tbaa !59
  %74 = icmp ne ptr %73, null
  br i1 %74, label %104, label %75

75:                                               ; preds = %70
  %76 = load ptr, ptr %9, align 8, !tbaa !55
  %77 = getelementptr inbounds nuw %struct.ISSUING_DIST_POINT_st, ptr %76, i32 0, i32 1
  %78 = load i32, ptr %77, align 8, !tbaa !61
  %79 = icmp sle i32 %78, 0
  br i1 %79, label %80, label %104

80:                                               ; preds = %75
  %81 = load ptr, ptr %9, align 8, !tbaa !55
  %82 = getelementptr inbounds nuw %struct.ISSUING_DIST_POINT_st, ptr %81, i32 0, i32 2
  %83 = load i32, ptr %82, align 4, !tbaa !62
  %84 = icmp sle i32 %83, 0
  br i1 %84, label %85, label %104

85:                                               ; preds = %80
  %86 = load ptr, ptr %9, align 8, !tbaa !55
  %87 = getelementptr inbounds nuw %struct.ISSUING_DIST_POINT_st, ptr %86, i32 0, i32 4
  %88 = load i32, ptr %87, align 8, !tbaa !63
  %89 = icmp sle i32 %88, 0
  br i1 %89, label %90, label %104

90:                                               ; preds = %85
  %91 = load ptr, ptr %9, align 8, !tbaa !55
  %92 = getelementptr inbounds nuw %struct.ISSUING_DIST_POINT_st, ptr %91, i32 0, i32 3
  %93 = load ptr, ptr %92, align 8, !tbaa !64
  %94 = icmp ne ptr %93, null
  br i1 %94, label %104, label %95

95:                                               ; preds = %90
  %96 = load ptr, ptr %9, align 8, !tbaa !55
  %97 = getelementptr inbounds nuw %struct.ISSUING_DIST_POINT_st, ptr %96, i32 0, i32 5
  %98 = load i32, ptr %97, align 4, !tbaa !65
  %99 = icmp sle i32 %98, 0
  br i1 %99, label %100, label %104

100:                                              ; preds = %95
  %101 = load ptr, ptr %7, align 8, !tbaa !37
  %102 = load i32, ptr %8, align 4, !tbaa !16
  %103 = call i32 (ptr, ptr, ...) @BIO_printf(ptr noundef %101, ptr noundef @.str.48, i32 noundef %102, ptr noundef @.str.43)
  br label %104

104:                                              ; preds = %100, %95, %90, %85, %80, %75, %70
  call void @llvm.lifetime.end.p0(i64 8, ptr %9) #5
  ret i32 1
}