; Function Attrs: nounwind uwtable
define internal noundef i32 @i2r_idp(ptr readnone captures(none) %0, ptr noundef readonly captures(none) %1, ptr noundef %2, i32 noundef %3) #1 {
  %5 = load ptr, ptr %1, align 8, !tbaa !31
  %.not = icmp eq ptr %5, null
  br i1 %.not, label %7, label %6

6:                                                ; preds = %4
  tail call fastcc void @print_distpoint(ptr noundef %2, ptr noundef %5, i32 noundef %3)
  br label %7

7:                                                ; preds = %6, %4
  %8 = getelementptr inbounds nuw i8, ptr %1, i64 8
  %9 = load i32, ptr %8, align 8, !tbaa !33
  %10 = icmp sgt i32 %9, 0
  br i1 %10, label %11, label %13

11:                                               ; preds = %7
  %12 = tail call i32 (ptr, ptr, ...) @BIO_printf(ptr noundef %2, ptr noundef nonnull @.str.42, i32 noundef %3, ptr noundef nonnull @.str.43) #5
  br label %13

13:                                               ; preds = %11, %7
  %14 = getelementptr inbounds nuw i8, ptr %1, i64 12
  %15 = load i32, ptr %14, align 4, !tbaa !34
  %16 = icmp sgt i32 %15, 0
  br i1 %16, label %17, label %19

17:                                               ; preds = %13
  %18 = tail call i32 (ptr, ptr, ...) @BIO_printf(ptr noundef %2, ptr noundef nonnull @.str.44, i32 noundef %3, ptr noundef nonnull @.str.43) #5
  br label %19

19:                                               ; preds = %17, %13
  %20 = getelementptr inbounds nuw i8, ptr %1, i64 24
  %21 = load i32, ptr %20, align 8, !tbaa !35
  %22 = icmp sgt i32 %21, 0
  br i1 %22, label %23, label %25

23:                                               ; preds = %19
  %24 = tail call i32 (ptr, ptr, ...) @BIO_printf(ptr noundef %2, ptr noundef nonnull @.str.45, i32 noundef %3, ptr noundef nonnull @.str.43) #5
  br label %25

25:                                               ; preds = %23, %19
  %26 = getelementptr inbounds nuw i8, ptr %1, i64 16
  %27 = load ptr, ptr %26, align 8, !tbaa !36
  %.not29 = icmp eq ptr %27, null
  br i1 %.not29, label %47, label %28

28:                                               ; preds = %25
  %29 = add nsw i32 %3, 2
  %30 = tail call i32 (ptr, ptr, ...) @BIO_printf(ptr noundef %2, ptr noundef nonnull @.str.52, i32 noundef %3, ptr noundef nonnull @.str.43, ptr noundef nonnull @.str.46, i32 noundef %29, ptr noundef nonnull @.str.43) #5
  br label %.outer.i

.outer.i:                                         ; preds = %.thread.i, %28
  %.ph.i = phi ptr [ %44, %.thread.i ], [ @.str.10, %28 ]
  %.019.ph.i = phi ptr [ %42, %.thread.i ], [ @reason_flags, %28 ]
  %.not17.i = phi i1 [ true, %.thread.i ], [ false, %28 ]
  %31 = load i32, ptr %.019.ph.i, align 8, !tbaa !25
  %32 = tail call i32 @ASN1_BIT_STRING_get_bit(ptr noundef nonnull %27, i32 noundef %31) #5
  %.not16.i35 = icmp eq i32 %32, 0
  br i1 %.not16.i35, label %.lr.ph, label %._crit_edge

33:                                               ; preds = %.lr.ph
  %34 = getelementptr inbounds nuw i8, ptr %.019.i36, i64 24
  %35 = load i32, ptr %34, align 8, !tbaa !25
  %36 = tail call i32 @ASN1_BIT_STRING_get_bit(ptr noundef nonnull %27, i32 noundef %35) #5
  %.not16.i = icmp eq i32 %36, 0
  br i1 %.not16.i, label %.lr.ph, label %._crit_edge, !llvm.loop !27

._crit_edge:                                      ; preds = %33, %.outer.i
  %.lcssa = phi ptr [ %.ph.i, %.outer.i ], [ %40, %33 ]
  %.019.i.lcssa = phi ptr [ %.019.ph.i, %.outer.i ], [ %34, %33 ]
  br i1 %.not17.i, label %37, label %.thread.i

37:                                               ; preds = %._crit_edge
  %38 = tail call i32 @BIO_puts(ptr noundef %2, ptr noundef nonnull @.str.53) #5
  br label %.thread.i

.lr.ph:                                           ; preds = %.outer.i, %33
  %.019.i36 = phi ptr [ %34, %33 ], [ %.019.ph.i, %.outer.i ]
  %39 = getelementptr inbounds nuw i8, ptr %.019.i36, i64 32
  %40 = load ptr, ptr %39, align 8, !tbaa !28
  %.not.i = icmp eq ptr %40, null
  br i1 %.not.i, label %45, label %33, !llvm.loop !27

.thread.i:                                        ; preds = %37, %._crit_edge
  %41 = tail call i32 @BIO_puts(ptr noundef %2, ptr noundef nonnull %.lcssa) #5
  %42 = getelementptr inbounds nuw i8, ptr %.019.i.lcssa, i64 24
  %43 = getelementptr inbounds nuw i8, ptr %.019.i.lcssa, i64 32
  %44 = load ptr, ptr %43, align 8, !tbaa !28
  %.not21.i = icmp eq ptr %44, null
  br i1 %.not21.i, label %.thread23.i, label %.outer.i, !llvm.loop !27

45:                                               ; preds = %.lr.ph
  br i1 %.not17.i, label %.thread23.i, label %print_reasons.exit

.thread23.i:                                      ; preds = %.thread.i, %45
  br label %print_reasons.exit

print_reasons.exit:                               ; preds = %45, %.thread23.i
  %.str.50.sink.i = phi ptr [ @.str.50, %.thread23.i ], [ @.str.54, %45 ]
  %46 = tail call i32 @BIO_puts(ptr noundef %2, ptr noundef nonnull %.str.50.sink.i) #5
  br label %47

47:                                               ; preds = %print_reasons.exit, %25
  %48 = getelementptr inbounds nuw i8, ptr %1, i64 28
  %49 = load i32, ptr %48, align 4, !tbaa !37
  %50 = icmp sgt i32 %49, 0
  br i1 %50, label %51, label %53

51:                                               ; preds = %47
  %52 = tail call i32 (ptr, ptr, ...) @BIO_printf(ptr noundef %2, ptr noundef nonnull @.str.47, i32 noundef %3, ptr noundef nonnull @.str.43) #5
  br label %53

53:                                               ; preds = %51, %47
  %54 = load ptr, ptr %1, align 8, !tbaa !31
  %.not30 = icmp eq ptr %54, null
  br i1 %.not30, label %55, label %71

55:                                               ; preds = %53
  %56 = load i32, ptr %8, align 8, !tbaa !33
  %57 = icmp slt i32 %56, 1
  br i1 %57, label %58, label %71

58:                                               ; preds = %55
  %59 = load i32, ptr %14, align 4, !tbaa !34
  %60 = icmp slt i32 %59, 1
  br i1 %60, label %61, label %71

61:                                               ; preds = %58
  %62 = load i32, ptr %20, align 8, !tbaa !35
  %63 = icmp slt i32 %62, 1
  br i1 %63, label %64, label %71

64:                                               ; preds = %61
  %65 = load ptr, ptr %26, align 8, !tbaa !36
  %.not31 = icmp eq ptr %65, null
  br i1 %.not31, label %66, label %71

66:                                               ; preds = %64
  %67 = load i32, ptr %48, align 4, !tbaa !37
  %68 = icmp slt i32 %67, 1
  br i1 %68, label %69, label %71

69:                                               ; preds = %66
  %70 = tail call i32 (ptr, ptr, ...) @BIO_printf(ptr noundef %2, ptr noundef nonnull @.str.48, i32 noundef %3, ptr noundef nonnull @.str.43) #5
  br label %71

71:                                               ; preds = %69, %66, %64, %61, %58, %55, %53
  ret i32 1
}